target datalayout = "e-m:e-p270:32:32-p271:32:32-p272:64:64-i64:64-i128:128-f80:128-n8:16:32:64-S128"
target triple = "x86_64-pc-linux-gnu"

%struct.ImageRect = type { i32, i32, i32, i32, ptr, ptr, i32, i32, i32 }
%struct.Splash = type { %struct.ImageFormat, [3 x %struct.DitherSettings], %struct.ImageFormat, [256 x i32], i32, i32, i32, i32, i32, ptr, i32, ptr, %struct.ImageRect, %struct.ImageFormat, ptr, i32, i32, i32, i32, i32, [256 x i32], i32, ptr, i32, ptr, i32, float, [2 x i32], ptr, i64, ptr, ptr, i64, %union.pthread_mutex_t, i64, ptr }
%struct.DitherSettings = type { i32, [512 x i32], [16 x [16 x i32]] }
%struct.ImageFormat = type { [4 x i32], [4 x i32], i32, i32, i32, ptr, i32, i32, ptr, i32, ptr }
%union.pthread_mutex_t = type { %struct.__pthread_mutex_s }
%struct.__pthread_mutex_s = type { i32, i32, i32, i32, i32, i16, i16, %struct.__pthread_internal_list }
%struct.__pthread_internal_list = type { ptr, ptr }
%struct.SplashImage = type { ptr, i32, ptr, i32 }

@shapeSupported = internal global i32 0, align 4

; Function Attrs: nounwind uwtable
define hidden void @SplashCleanupPlatform(ptr noundef %0) #0 {
  %2 = alloca ptr, align 8
  %3 = alloca i32, align 4
  store ptr %0, ptr %2, align 8
  %4 = load ptr, ptr %2, align 8
  %5 = getelementptr inbounds %struct.Splash, ptr %4, i32 0, i32 9
  %6 = load ptr, ptr %5, align 8
  %7 = icmp ne ptr %6, null
  br i1 %7, label %8, label %46

8:                                                ; preds = %1
  store i32 0, ptr %3, align 4
  br label %9

9:                                                ; preds = %42, %8
  %10 = load i32, ptr %3, align 4
  %11 = load ptr, ptr %2, align 8
  %12 = getelementptr inbounds %struct.Splash, ptr %11, i32 0, i32 8
  %13 = load i32, ptr %12, align 8
  %14 = icmp slt i32 %10, %13
  br i1 %14, label %15, label %45

15:                                               ; preds = %9
  %16 = load ptr, ptr %2, align 8
  %17 = getelementptr inbounds %struct.Splash, ptr %16, i32 0, i32 9
  %18 = load ptr, ptr %17, align 8
  %19 = load i32, ptr %3, align 4
  %20 = sext i32 %19 to i64
  %21 = getelementptr inbounds %struct.SplashImage, ptr %18, i64 %20
  %22 = getelementptr inbounds %struct.SplashImage, ptr %21, i32 0, i32 2
  %23 = load ptr, ptr %22, align 8
  %24 = icmp ne ptr %23, null
  br i1 %24, label %25, label %41

25:                                               ; preds = %15
  %26 = load ptr, ptr %2, align 8
  %27 = getelementptr inbounds %struct.Splash, ptr %26, i32 0, i32 9
  %28 = load ptr, ptr %27, align 8
  %29 = load i32, ptr %3, align 4
  %30 = sext i32 %29 to i64
  %31 = getelementptr inbounds %struct.SplashImage, ptr %28, i64 %30
  %32 = getelementptr inbounds %struct.SplashImage, ptr %31, i32 0, i32 2
  %33 = load ptr, ptr %32, align 8
  call void @free(ptr noundef %33) #7
  %34 = load ptr, ptr %2, align 8
  %35 = getelementptr inbounds %struct.Splash, ptr %34, i32 0, i32 9
  %36 = load ptr, ptr %35, align 8
  %37 = load i32, ptr %3, align 4
  %38 = sext i32 %37 to i64
  %39 = getelementptr inbounds %struct.SplashImage, ptr %36, i64 %38
  %40 = getelementptr inbounds %struct.SplashImage, ptr %39, i32 0, i32 2
  store ptr null, ptr %40, align 8
  br label %41

41:                                               ; preds = %25, %15
  br label %42

42:                                               ; preds = %41
  %43 = load i32, ptr %3, align 4
  %44 = add nsw i32 %43, 1
  store i32 %44, ptr %3, align 4
  br label %9, !llvm.loop !10

45:                                               ; preds = %9
  br label %46

46:                                               ; preds = %45, %1
  %47 = load i32, ptr @shapeSupported, align 4
  %48 = load ptr, ptr %2, align 8
  %49 = getelementptr inbounds %struct.Splash, ptr %48, i32 0, i32 5
  store i32 %47, ptr %49, align 4
  ret void
}