; Function Attrs: nounwind uwtable
define hidden void @SplashCleanupPlatform(ptr nocapture noundef %0) local_unnamed_addr #0 {
  %2 = getelementptr inbounds i8, ptr %0, i64 10456
  %3 = load ptr, ptr %2, align 8
  %.not = icmp eq ptr %3, null
  br i1 %.not, label %.loopexit, label %.preheader

.preheader:                                       ; preds = %1
  %4 = getelementptr inbounds i8, ptr %0, i64 10448
  %5 = load i32, ptr %4, align 8
  %6 = icmp sgt i32 %5, 0
  br i1 %6, label %.lr.ph, label %.loopexit

.lr.ph:                                           ; preds = %.preheader, %14
  %7 = phi i32 [ %15, %14 ], [ %5, %.preheader ]
  %indvars.iv = phi i64 [ %indvars.iv.next, %14 ], [ 0, %.preheader ]
  %8 = load ptr, ptr %2, align 8
  %9 = getelementptr inbounds %struct.SplashImage, ptr %8, i64 %indvars.iv, i32 2
  %10 = load ptr, ptr %9, align 8
  %.not11 = icmp eq ptr %10, null
  br i1 %.not11, label %14, label %11

11:                                               ; preds = %.lr.ph
  tail call void @free(ptr noundef nonnull %10) #16
  %12 = load ptr, ptr %2, align 8
  %13 = getelementptr inbounds %struct.SplashImage, ptr %12, i64 %indvars.iv, i32 2
  store ptr null, ptr %13, align 8
  %.pre = load i32, ptr %4, align 8
  br label %14

14:                                               ; preds = %.lr.ph, %11
  %15 = phi i32 [ %7, %.lr.ph ], [ %.pre, %11 ]
  %indvars.iv.next = add nuw nsw i64 %indvars.iv, 1
  %16 = sext i32 %15 to i64
  %17 = icmp slt i64 %indvars.iv.next, %16
  br i1 %17, label %.lr.ph, label %.loopexit, !llvm.loop !10

.loopexit:                                        ; preds = %14, %.preheader, %1
  %18 = load i32, ptr @shapeSupported, align 4
  %19 = getelementptr inbounds i8, ptr %0, i64 10436
  store i32 %18, ptr %19, align 4
  ret void
}